; Function Attrs: nounwind sspstrong uwtable
define internal i64 @rb_file_s_path(i64 %0, i64 noundef %1) #0 {
  %3 = alloca i64, align 8
  call void @llvm.lifetime.start.p0(i64 8, ptr nonnull %3) #22
  %4 = icmp eq i64 %1, 0
  %5 = and i64 %1, 7
  %6 = icmp ne i64 %5, 0
  %7 = or i1 %4, %6
  br i1 %7, label %rbimpl_RB_TYPE_P_fastpath.exit.thread.i.i, label %rbimpl_RB_TYPE_P_fastpath.exit.i.i

rbimpl_RB_TYPE_P_fastpath.exit.i.i:               ; preds = %2
  %8 = inttoptr i64 %1 to ptr
  %9 = load i64, ptr %8, align 8, !tbaa !7
  %10 = and i64 %9, 31
  %11 = icmp eq i64 %10, 5
  br i1 %11, label %rb_get_path.exit, label %rbimpl_RB_TYPE_P_fastpath.exit.thread.i.i

rbimpl_RB_TYPE_P_fastpath.exit.thread.i.i:        ; preds = %rbimpl_RB_TYPE_P_fastpath.exit.i.i, %2
  %.pr.i.i.i = load i64, ptr @rb_get_path_check_to_string.rbimpl_id, align 8, !tbaa !12
  %.not4.i.i.i = icmp eq i64 %.pr.i.i.i, 0
  br i1 %.not4.i.i.i, label %.lr.ph.i.i.i, label %rbimpl_intern_const.exit.i.i

.lr.ph.i.i.i:                                     ; preds = %rbimpl_RB_TYPE_P_fastpath.exit.thread.i.i, %.lr.ph.i.i.i
  %12 = tail call i64 @rb_intern2(ptr noundef nonnull @.str, i64 noundef 7) #22
  store i64 %12, ptr @rb_get_path_check_to_string.rbimpl_id, align 8, !tbaa !12
  %.not.i.i.i = icmp eq i64 %12, 0
  br i1 %.not.i.i.i, label %.lr.ph.i.i.i, label %rbimpl_intern_const.exit.i.i, !llvm.loop !13

rbimpl_intern_const.exit.i.i:                     ; preds = %.lr.ph.i.i.i, %rbimpl_RB_TYPE_P_fastpath.exit.thread.i.i
  %.lcssa.i.i.i = phi i64 [ %.pr.i.i.i, %rbimpl_RB_TYPE_P_fastpath.exit.thread.i.i ], [ %12, %.lr.ph.i.i.i ]
  %13 = tail call i64 @rb_check_funcall_default(i64 noundef %1, i64 noundef %.lcssa.i.i.i, i32 noundef 0, ptr noundef null, i64 noundef %1) #22
  store i64 %13, ptr %3, align 8, !tbaa !12
  %14 = call i64 @rb_string_value(ptr noundef nonnull %3) #22
  %15 = load i64, ptr %3, align 8, !tbaa !12
  br label %rb_get_path.exit

rb_get_path.exit:                                 ; preds = %rbimpl_RB_TYPE_P_fastpath.exit.i.i, %rbimpl_intern_const.exit.i.i
  %.0.i.i = phi i64 [ %15, %rbimpl_intern_const.exit.i.i ], [ %1, %rbimpl_RB_TYPE_P_fastpath.exit.i.i ]
  call void @llvm.lifetime.end.p0(i64 8, ptr nonnull %3) #22
  %16 = call i64 @rb_get_path_check_convert(i64 noundef %.0.i.i)
  ret i64 %16
}